target datalayout = "e-m:e-p270:32:32-p271:32:32-p272:64:64-i64:64-i128:128-f80:128-n8:16:32:64-S128"
target triple = "x86_64-pc-linux-gnu"

%struct.SDL_AtomicInt = type { i32 }
%struct.VulkanRenderer = type { ptr, ptr, %struct.VkPhysicalDeviceProperties2, %struct.VkPhysicalDeviceDriverProperties, %struct.VkPhysicalDeviceFeatures, ptr, i8, i8, i8, i8, i8, i8, i32, i32, %struct.VulkanExtensions, i8, i8, i8, i8, ptr, %struct.VkPhysicalDeviceMemoryProperties, i8, ptr, i32, i32, i32, ptr, ptr, i32, i32, %struct.VulkanFencePool, ptr, ptr, ptr, ptr, ptr, ptr, ptr, i32, i32, ptr, i32, i32, %struct.SDL_AtomicInt, i32, ptr, i32, i32, ptr, i32, i32, ptr, i32, i32, ptr, i32, i32, ptr, i32, i32, ptr, i32, i32, ptr, i32, i32, ptr, ptr, ptr, ptr, ptr, ptr, ptr, ptr, ptr, ptr, ptr, i8, ptr, i32, i32, ptr, ptr, ptr, ptr, ptr, ptr, ptr, ptr, ptr, ptr, ptr, ptr, ptr, ptr, ptr, ptr, ptr, ptr, ptr, ptr, ptr, ptr, ptr, ptr, ptr, ptr, ptr, ptr, ptr, ptr, ptr, ptr, ptr, ptr, ptr, ptr, ptr, ptr, ptr, ptr, ptr, ptr, ptr, ptr, ptr, ptr, ptr, ptr, ptr, ptr, ptr, ptr, ptr, ptr, ptr, ptr, ptr, ptr, ptr, ptr, ptr, ptr, ptr, ptr, ptr, ptr, ptr, ptr, ptr, ptr, ptr, ptr, ptr, ptr, ptr, ptr, ptr, ptr, ptr, ptr, ptr, ptr, ptr, ptr, ptr, ptr, ptr, ptr, ptr, ptr, ptr, ptr, ptr, ptr, ptr, ptr, ptr, ptr, ptr, ptr, ptr, ptr, ptr, ptr, ptr, ptr, ptr, ptr, ptr, ptr }
%struct.VkPhysicalDeviceProperties2 = type { i32, ptr, %struct.VkPhysicalDeviceProperties }
%struct.VkPhysicalDeviceProperties = type { i32, i32, i32, i32, i32, [256 x i8], [16 x i8], %struct.VkPhysicalDeviceLimits, %struct.VkPhysicalDeviceSparseProperties }
%struct.VkPhysicalDeviceLimits = type { i32, i32, i32, i32, i32, i32, i32, i32, i32, i32, i32, i64, i64, i32, i32, i32, i32, i32, i32, i32, i32, i32, i32, i32, i32, i32, i32, i32, i32, i32, i32, i32, i32, i32, i32, i32, i32, i32, i32, i32, i32, i32, i32, i32, i32, i32, i32, i32, i32, i32, i32, i32, [3 x i32], i32, [3 x i32], i32, i32, i32, i32, i32, float, float, i32, [2 x i32], [2 x float], i32, i64, i64, i64, i64, i32, i32, i32, i32, float, float, i32, i32, i32, i32, i32, i32, i32, i32, i32, i32, i32, i32, i32, i32, i32, i32, float, i32, i32, i32, i32, [2 x float], [2 x float], float, float, i32, i32, i64, i64, i64 }
%struct.VkPhysicalDeviceSparseProperties = type { i32, i32, i32, i32, i32 }
%struct.VkPhysicalDeviceDriverProperties = type { i32, ptr, i32, [256 x i8], [256 x i8], %struct.VkConformanceVersion }
%struct.VkConformanceVersion = type { i8, i8, i8, i8 }
%struct.VkPhysicalDeviceFeatures = type { i32, i32, i32, i32, i32, i32, i32, i32, i32, i32, i32, i32, i32, i32, i32, i32, i32, i32, i32, i32, i32, i32, i32, i32, i32, i32, i32, i32, i32, i32, i32, i32, i32, i32, i32, i32, i32, i32, i32, i32, i32, i32, i32, i32, i32, i32, i32, i32, i32, i32, i32, i32, i32, i32, i32 }
%struct.VulkanExtensions = type { i8, i8, i8, i8, i8 }
%struct.VkPhysicalDeviceMemoryProperties = type { i32, [32 x %struct.VkMemoryType], i32, [16 x %struct.VkMemoryHeap] }
%struct.VkMemoryType = type { i32, i32 }
%struct.VkMemoryHeap = type { i64, i32 }
%struct.VulkanFencePool = type { ptr, ptr, i32, i32 }
%struct.VulkanMemoryAllocation = type { ptr, ptr, i64, ptr, i32, i32, ptr, i32, i32, i8, i64, i64, ptr, ptr }
%struct.VulkanMemoryUsedRegion = type { ptr, i64, i64, i64, i64, i64, i8, %union.anon }
%union.anon = type { ptr }

; Function Attrs: nounwind uwtable
define internal void @VULKAN_INTERNAL_RemoveMemoryUsedRegion(ptr noundef %0, ptr noundef %1) #0 {
  %3 = alloca ptr, align 8
  %4 = alloca ptr, align 8
  %5 = alloca i32, align 4
  store ptr %0, ptr %3, align 8
  store ptr %1, ptr %4, align 8
  call void @llvm.lifetime.start.p0(i64 4, ptr %5) #9
  %6 = load ptr, ptr %3, align 8
  %7 = getelementptr inbounds nuw %struct.VulkanRenderer, ptr %6, i32 0, i32 66
  %8 = load ptr, ptr %7, align 8
  call void @SDL_LockMutex_REAL(ptr noundef %8)
  store i32 0, ptr %5, align 4
  br label %9

9:                                                ; preds = %63, %2
  %10 = load i32, ptr %5, align 4
  %11 = load ptr, ptr %4, align 8
  %12 = getelementptr inbounds nuw %struct.VulkanMemoryUsedRegion, ptr %11, i32 0, i32 0
  %13 = load ptr, ptr %12, align 8
  %14 = getelementptr inbounds nuw %struct.VulkanMemoryAllocation, ptr %13, i32 0, i32 4
  %15 = load i32, ptr %14, align 8
  %16 = icmp ult i32 %10, %15
  br i1 %16, label %17, label %66

17:                                               ; preds = %9
  %18 = load ptr, ptr %4, align 8
  %19 = getelementptr inbounds nuw %struct.VulkanMemoryUsedRegion, ptr %18, i32 0, i32 0
  %20 = load ptr, ptr %19, align 8
  %21 = getelementptr inbounds nuw %struct.VulkanMemoryAllocation, ptr %20, i32 0, i32 3
  %22 = load ptr, ptr %21, align 8
  %23 = load i32, ptr %5, align 4
  %24 = zext i32 %23 to i64
  %25 = getelementptr inbounds nuw ptr, ptr %22, i64 %24
  %26 = load ptr, ptr %25, align 8
  %27 = load ptr, ptr %4, align 8
  %28 = icmp eq ptr %26, %27
  br i1 %28, label %29, label %62

29:                                               ; preds = %17
  %30 = load i32, ptr %5, align 4
  %31 = load ptr, ptr %4, align 8
  %32 = getelementptr inbounds nuw %struct.VulkanMemoryUsedRegion, ptr %31, i32 0, i32 0
  %33 = load ptr, ptr %32, align 8
  %34 = getelementptr inbounds nuw %struct.VulkanMemoryAllocation, ptr %33, i32 0, i32 4
  %35 = load i32, ptr %34, align 8
  %36 = sub i32 %35, 1
  %37 = icmp ne i32 %30, %36
  br i1 %37, label %38, label %61

38:                                               ; preds = %29
  %39 = load ptr, ptr %4, align 8
  %40 = getelementptr inbounds nuw %struct.VulkanMemoryUsedRegion, ptr %39, i32 0, i32 0
  %41 = load ptr, ptr %40, align 8
  %42 = getelementptr inbounds nuw %struct.VulkanMemoryAllocation, ptr %41, i32 0, i32 3
  %43 = load ptr, ptr %42, align 8
  %44 = load ptr, ptr %4, align 8
  %45 = getelementptr inbounds nuw %struct.VulkanMemoryUsedRegion, ptr %44, i32 0, i32 0
  %46 = load ptr, ptr %45, align 8
  %47 = getelementptr inbounds nuw %struct.VulkanMemoryAllocation, ptr %46, i32 0, i32 4
  %48 = load i32, ptr %47, align 8
  %49 = sub i32 %48, 1
  %50 = zext i32 %49 to i64
  %51 = getelementptr inbounds nuw ptr, ptr %43, i64 %50
  %52 = load ptr, ptr %51, align 8
  %53 = load ptr, ptr %4, align 8
  %54 = getelementptr inbounds nuw %struct.VulkanMemoryUsedRegion, ptr %53, i32 0, i32 0
  %55 = load ptr, ptr %54, align 8
  %56 = getelementptr inbounds nuw %struct.VulkanMemoryAllocation, ptr %55, i32 0, i32 3
  %57 = load ptr, ptr %56, align 8
  %58 = load i32, ptr %5, align 4
  %59 = zext i32 %58 to i64
  %60 = getelementptr inbounds nuw ptr, ptr %57, i64 %59
  store ptr %52, ptr %60, align 8
  br label %61

61:                                               ; preds = %38, %29
  br label %66

62:                                               ; preds = %17
  br label %63

63:                                               ; preds = %62
  %64 = load i32, ptr %5, align 4
  %65 = add i32 %64, 1
  store i32 %65, ptr %5, align 4
  br label %9, !llvm.loop !79

66:                                               ; preds = %61, %9
  %67 = load ptr, ptr %4, align 8
  %68 = getelementptr inbounds nuw %struct.VulkanMemoryUsedRegion, ptr %67, i32 0, i32 2
  %69 = load i64, ptr %68, align 8
  %70 = load ptr, ptr %4, align 8
  %71 = getelementptr inbounds nuw %struct.VulkanMemoryUsedRegion, ptr %70, i32 0, i32 0
  %72 = load ptr, ptr %71, align 8
  %73 = getelementptr inbounds nuw %struct.VulkanMemoryAllocation, ptr %72, i32 0, i32 11
  %74 = load i64, ptr %73, align 8
  %75 = sub i64 %74, %69
  store i64 %75, ptr %73, align 8
  %76 = load ptr, ptr %4, align 8
  %77 = getelementptr inbounds nuw %struct.VulkanMemoryUsedRegion, ptr %76, i32 0, i32 0
  %78 = load ptr, ptr %77, align 8
  %79 = getelementptr inbounds nuw %struct.VulkanMemoryAllocation, ptr %78, i32 0, i32 4
  %80 = load i32, ptr %79, align 8
  %81 = sub i32 %80, 1
  store i32 %81, ptr %79, align 8
  %82 = load ptr, ptr %3, align 8
  %83 = load ptr, ptr %4, align 8
  %84 = getelementptr inbounds nuw %struct.VulkanMemoryUsedRegion, ptr %83, i32 0, i32 0
  %85 = load ptr, ptr %84, align 8
  %86 = load ptr, ptr %4, align 8
  %87 = getelementptr inbounds nuw %struct.VulkanMemoryUsedRegion, ptr %86, i32 0, i32 1
  %88 = load i64, ptr %87, align 8
  %89 = load ptr, ptr %4, align 8
  %90 = getelementptr inbounds nuw %struct.VulkanMemoryUsedRegion, ptr %89, i32 0, i32 2
  %91 = load i64, ptr %90, align 8
  call void @VULKAN_INTERNAL_NewMemoryFreeRegion(ptr noundef %82, ptr noundef %85, i64 noundef %88, i64 noundef %91)
  %92 = load ptr, ptr %4, align 8
  %93 = getelementptr inbounds nuw %struct.VulkanMemoryUsedRegion, ptr %92, i32 0, i32 0
  %94 = load ptr, ptr %93, align 8
  %95 = getelementptr inbounds nuw %struct.VulkanMemoryAllocation, ptr %94, i32 0, i32 4
  %96 = load i32, ptr %95, align 8
  %97 = icmp eq i32 %96, 0
  br i1 %97, label %98, label %101

98:                                               ; preds = %66
  %99 = load ptr, ptr %3, align 8
  %100 = getelementptr inbounds nuw %struct.VulkanRenderer, ptr %99, i32 0, i32 21
  store i8 1, ptr %100, align 8
  br label %101

101:                                              ; preds = %98, %66
  %102 = load ptr, ptr %4, align 8
  call void @SDL_free_REAL(ptr noundef %102)
  %103 = load ptr, ptr %3, align 8
  %104 = getelementptr inbounds nuw %struct.VulkanRenderer, ptr %103, i32 0, i32 66
  %105 = load ptr, ptr %104, align 8
  call void @SDL_UnlockMutex_REAL(ptr noundef %105)
  call void @llvm.lifetime.end.p0(i64 4, ptr %5) #9
  ret void
}