; Function Attrs: nounwind uwtable
define internal fastcc void @VULKAN_INTERNAL_RemoveMemoryUsedRegion(ptr noundef %0, ptr noundef %1) unnamed_addr #0 {
  %3 = getelementptr inbounds nuw i8, ptr %0, i64 2464
  %4 = load ptr, ptr %3, align 8
  tail call void @SDL_LockMutex_REAL(ptr noundef %4) #13
  %5 = load ptr, ptr %1, align 8
  %6 = getelementptr inbounds nuw i8, ptr %5, i64 32
  %7 = load i32, ptr %6, align 8
  %.not31 = icmp eq i32 %7, 0
  br i1 %.not31, label %.loopexit, label %.lr.ph

.lr.ph:                                           ; preds = %2
  %8 = getelementptr inbounds nuw i8, ptr %5, i64 24
  %9 = load ptr, ptr %8, align 8
  %wide.trip.count = zext i32 %7 to i64
  br label %10

10:                                               ; preds = %.lr.ph, %22
  %indvars.iv = phi i64 [ 0, %.lr.ph ], [ %indvars.iv.next, %22 ]
  %11 = getelementptr inbounds nuw ptr, ptr %9, i64 %indvars.iv
  %12 = load ptr, ptr %11, align 8
  %13 = icmp eq ptr %12, %1
  br i1 %13, label %14, label %22

14:                                               ; preds = %10
  %15 = trunc nuw i64 %indvars.iv to i32
  %16 = add i32 %7, -1
  %.not = icmp eq i32 %16, %15
  br i1 %.not, label %.loopexit, label %17

17:                                               ; preds = %14
  %18 = getelementptr inbounds nuw ptr, ptr %9, i64 %indvars.iv
  %19 = zext i32 %16 to i64
  %20 = getelementptr inbounds nuw ptr, ptr %9, i64 %19
  %21 = load ptr, ptr %20, align 8
  store ptr %21, ptr %18, align 8
  %.pre = load ptr, ptr %1, align 8
  br label %.loopexit

22:                                               ; preds = %10
  %indvars.iv.next = add nuw nsw i64 %indvars.iv, 1
  %exitcond.not = icmp eq i64 %indvars.iv.next, %wide.trip.count
  br i1 %exitcond.not, label %.loopexit, label %10, !llvm.loop !24

.loopexit:                                        ; preds = %22, %2, %14, %17
  %23 = phi ptr [ %5, %2 ], [ %5, %14 ], [ %.pre, %17 ], [ %5, %22 ]
  %24 = getelementptr inbounds nuw i8, ptr %1, i64 16
  %25 = load i64, ptr %24, align 8
  %26 = getelementptr inbounds nuw i8, ptr %23, i64 72
  %27 = load i64, ptr %26, align 8
  %28 = sub i64 %27, %25
  store i64 %28, ptr %26, align 8
  %29 = load ptr, ptr %1, align 8
  %30 = getelementptr inbounds nuw i8, ptr %29, i64 32
  %31 = load i32, ptr %30, align 8
  %32 = add i32 %31, -1
  store i32 %32, ptr %30, align 8
  %33 = load ptr, ptr %1, align 8
  %34 = getelementptr inbounds nuw i8, ptr %1, i64 8
  %35 = load i64, ptr %34, align 8
  %36 = load i64, ptr %24, align 8
  tail call fastcc void @VULKAN_INTERNAL_NewMemoryFreeRegion(ptr noundef %0, ptr noundef %33, i64 noundef %35, i64 noundef %36)
  %37 = load ptr, ptr %1, align 8
  %38 = getelementptr inbounds nuw i8, ptr %37, i64 32
  %39 = load i32, ptr %38, align 8
  %40 = icmp eq i32 %39, 0
  br i1 %40, label %41, label %43

41:                                               ; preds = %.loopexit
  %42 = getelementptr inbounds nuw i8, ptr %0, i64 2184
  store i8 1, ptr %42, align 8
  br label %43

43:                                               ; preds = %41, %.loopexit
  tail call void @SDL_free_REAL(ptr noundef nonnull %1) #13
  %44 = load ptr, ptr %3, align 8
  tail call void @SDL_UnlockMutex_REAL(ptr noundef %44) #13
  ret void
}